; Function Attrs: nounwind uwtable
define void @b2Body_SetAwake(i64 %0, i1 noundef zeroext %1) local_unnamed_addr #0 {
  %.sroa.2.0.extract.shift = lshr i64 %0, 32
  %3 = trunc nuw i64 %.sroa.2.0.extract.shift to i32
  %4 = and i32 %3, 65535
  %5 = tail call ptr @b2GetWorldLocked(i32 noundef %4) #10
  %6 = icmp eq ptr %5, null
  br i1 %6, label %28, label %7

7:                                                ; preds = %2
  %8 = getelementptr inbounds nuw i8, ptr %5, i64 1032
  %.val.i = load ptr, ptr %8, align 8, !tbaa !10
  %9 = shl i64 %0, 32
  %sext.i = add i64 %9, -4294967296
  %10 = ashr exact i64 %sext.i, 25
  %11 = getelementptr inbounds i8, ptr %.val.i, i64 %10
  %12 = getelementptr inbounds nuw i8, ptr %11, i64 40
  %13 = load i32, ptr %12, align 8, !tbaa !19
  br i1 %1, label %14, label %.critedge

14:                                               ; preds = %7
  %15 = icmp sgt i32 %13, 2
  br i1 %15, label %b2WakeBody.exit, label %28

b2WakeBody.exit:                                  ; preds = %14
  tail call void @b2WakeSolverSet(ptr noundef nonnull %5, i32 noundef %13) #10
  br label %28

.critedge:                                        ; preds = %7
  %16 = icmp eq i32 %13, 2
  br i1 %16, label %17, label %28

17:                                               ; preds = %.critedge
  %18 = getelementptr inbounds nuw i8, ptr %5, i64 1192
  %19 = getelementptr inbounds nuw i8, ptr %11, i64 76
  %20 = load i32, ptr %19, align 4, !tbaa !135
  %.val = load ptr, ptr %18, align 8, !tbaa !177
  %21 = sext i32 %20 to i64
  %22 = getelementptr inbounds %struct.b2Island, ptr %.val, i64 %21, i32 13
  %23 = load i32, ptr %22, align 4, !tbaa !213
  %24 = icmp sgt i32 %23, 0
  br i1 %24, label %25, label %26

25:                                               ; preds = %17
  tail call void @b2SplitIsland(ptr noundef nonnull %5, i32 noundef %20) #10
  %.pre = load i32, ptr %19, align 4, !tbaa !135
  br label %26

26:                                               ; preds = %25, %17
  %27 = phi i32 [ %.pre, %25 ], [ %20, %17 ]
  tail call void @b2TrySleepIsland(ptr noundef nonnull %5, i32 noundef %27) #10
  br label %28

28:                                               ; preds = %14, %b2WakeBody.exit, %26, %.critedge, %2
  ret void
}